target datalayout = "e-m:e-p270:32:32-p271:32:32-p272:64:64-i64:64-i128:128-f80:128-n8:16:32:64-S128"
target triple = "x86_64-pc-linux-gnu"

%struct.mbedtls_cipher_info_t = type { ptr, i32 }
%struct.mbedtls_cipher_context_t = type { ptr, i32, i32, ptr, ptr, [16 x i8], i64, [16 x i8], i64, ptr, ptr }

; Function Attrs: nounwind uwtable
define hidden i32 @mbedtls_cipher_set_padding_mode(ptr noundef %0, i32 noundef %1) #0 {
  %3 = alloca i32, align 4
  %4 = alloca ptr, align 8
  %5 = alloca i32, align 4
  store ptr %0, ptr %4, align 8, !tbaa !29
  store i32 %1, ptr %5, align 4, !tbaa !3
  %6 = load ptr, ptr %4, align 8, !tbaa !29
  %7 = getelementptr inbounds nuw %struct.mbedtls_cipher_context_t, ptr %6, i32 0, i32 0
  %8 = load ptr, ptr %7, align 8, !tbaa !36
  %9 = icmp eq ptr null, %8
  br i1 %9, label %19, label %10

10:                                               ; preds = %2
  %11 = load ptr, ptr %4, align 8, !tbaa !29
  %12 = getelementptr inbounds nuw %struct.mbedtls_cipher_context_t, ptr %11, i32 0, i32 0
  %13 = load ptr, ptr %12, align 8, !tbaa !36
  %14 = getelementptr inbounds nuw %struct.mbedtls_cipher_info_t, ptr %13, i32 0, i32 1
  %15 = load i32, ptr %14, align 8
  %16 = lshr i32 %15, 12
  %17 = and i32 %16, 15
  %18 = icmp ne i32 2, %17
  br i1 %18, label %19, label %20

19:                                               ; preds = %10, %2
  store i32 -24832, ptr %3, align 4
  br label %49

20:                                               ; preds = %10
  %21 = load i32, ptr %5, align 4, !tbaa !3
  switch i32 %21, label %47 [
    i32 0, label %22
    i32 1, label %27
    i32 2, label %32
    i32 3, label %37
    i32 4, label %42
  ]

22:                                               ; preds = %20
  %23 = load ptr, ptr %4, align 8, !tbaa !29
  %24 = getelementptr inbounds nuw %struct.mbedtls_cipher_context_t, ptr %23, i32 0, i32 3
  store ptr @add_pkcs_padding, ptr %24, align 8, !tbaa !49
  %25 = load ptr, ptr %4, align 8, !tbaa !29
  %26 = getelementptr inbounds nuw %struct.mbedtls_cipher_context_t, ptr %25, i32 0, i32 4
  store ptr @get_pkcs_padding, ptr %26, align 8, !tbaa !56
  br label %48

27:                                               ; preds = %20
  %28 = load ptr, ptr %4, align 8, !tbaa !29
  %29 = getelementptr inbounds nuw %struct.mbedtls_cipher_context_t, ptr %28, i32 0, i32 3
  store ptr @add_one_and_zeros_padding, ptr %29, align 8, !tbaa !49
  %30 = load ptr, ptr %4, align 8, !tbaa !29
  %31 = getelementptr inbounds nuw %struct.mbedtls_cipher_context_t, ptr %30, i32 0, i32 4
  store ptr @get_one_and_zeros_padding, ptr %31, align 8, !tbaa !56
  br label %48

32:                                               ; preds = %20
  %33 = load ptr, ptr %4, align 8, !tbaa !29
  %34 = getelementptr inbounds nuw %struct.mbedtls_cipher_context_t, ptr %33, i32 0, i32 3
  store ptr @add_zeros_and_len_padding, ptr %34, align 8, !tbaa !49
  %35 = load ptr, ptr %4, align 8, !tbaa !29
  %36 = getelementptr inbounds nuw %struct.mbedtls_cipher_context_t, ptr %35, i32 0, i32 4
  store ptr @get_zeros_and_len_padding, ptr %36, align 8, !tbaa !56
  br label %48

37:                                               ; preds = %20
  %38 = load ptr, ptr %4, align 8, !tbaa !29
  %39 = getelementptr inbounds nuw %struct.mbedtls_cipher_context_t, ptr %38, i32 0, i32 3
  store ptr @add_zeros_padding, ptr %39, align 8, !tbaa !49
  %40 = load ptr, ptr %4, align 8, !tbaa !29
  %41 = getelementptr inbounds nuw %struct.mbedtls_cipher_context_t, ptr %40, i32 0, i32 4
  store ptr @get_zeros_padding, ptr %41, align 8, !tbaa !56
  br label %48

42:                                               ; preds = %20
  %43 = load ptr, ptr %4, align 8, !tbaa !29
  %44 = getelementptr inbounds nuw %struct.mbedtls_cipher_context_t, ptr %43, i32 0, i32 3
  store ptr null, ptr %44, align 8, !tbaa !49
  %45 = load ptr, ptr %4, align 8, !tbaa !29
  %46 = getelementptr inbounds nuw %struct.mbedtls_cipher_context_t, ptr %45, i32 0, i32 4
  store ptr @get_no_padding, ptr %46, align 8, !tbaa !56
  br label %48

47:                                               ; preds = %20
  store i32 -24704, ptr %3, align 4
  br label %49

48:                                               ; preds = %42, %37, %32, %27, %22
  store i32 0, ptr %3, align 4
  br label %49

49:                                               ; preds = %48, %47, %19
  %50 = load i32, ptr %3, align 4
  ret i32 %50
}