; Function Attrs: mustprogress nofree norecurse nosync nounwind willreturn memory(read, argmem: readwrite, inaccessiblemem: none) uwtable
define hidden range(i32 -24832, 1) i32 @mbedtls_cipher_set_padding_mode(ptr noundef captures(none) %0, i32 noundef %1) local_unnamed_addr #12 {
  %3 = load ptr, ptr %0, align 8, !tbaa !29
  %4 = icmp eq ptr %3, null
  br i1 %4, label %15, label %5

5:                                                ; preds = %2
  %6 = getelementptr inbounds nuw i8, ptr %3, i64 8
  %7 = load i32, ptr %6, align 8
  %8 = and i32 %7, 61440
  %.not = icmp eq i32 %8, 8192
  br i1 %.not, label %9, label %15

9:                                                ; preds = %5
  %10 = icmp ult i32 %1, 5
  br i1 %10, label %switch.lookup, label %15

switch.lookup:                                    ; preds = %9
  %11 = zext nneg i32 %1 to i64
  %switch.gep = getelementptr inbounds nuw [5 x ptr], ptr @switch.table.mbedtls_cipher_set_padding_mode, i64 0, i64 %11
  %switch.load = load ptr, ptr %switch.gep, align 8
  %12 = zext nneg i32 %1 to i64
  %switch.gep14 = getelementptr inbounds nuw [5 x ptr], ptr @switch.table.mbedtls_cipher_set_padding_mode.3, i64 0, i64 %12
  %switch.load15 = load ptr, ptr %switch.gep14, align 8
  %13 = getelementptr inbounds nuw i8, ptr %0, i64 16
  store ptr %switch.load, ptr %13, align 8, !tbaa !39
  %14 = getelementptr inbounds nuw i8, ptr %0, i64 24
  store ptr %switch.load15, ptr %14, align 8, !tbaa !46
  br label %15

15:                                               ; preds = %9, %switch.lookup, %2, %5
  %.0 = phi i32 [ -24832, %5 ], [ -24832, %2 ], [ -24704, %9 ], [ 0, %switch.lookup ]
  ret i32 %.0
}